target datalayout = "e-m:e-p270:32:32-p271:32:32-p272:64:64-i64:64-i128:128-f80:128-n8:16:32:64-S128"
target triple = "x86_64-pc-linux-gnu"

%struct._priv_exr_context_t = type { i8, i8, i8, i8, i8, i8, i8, i8, %struct.exr_attr_string_t, %struct.exr_attr_string_t, ptr, ptr, ptr, ptr, ptr, ptr, ptr, ptr, i32, i32, i32, i32, i32, float, ptr, ptr, ptr, i64, ptr, ptr, i64, i32, i32, i32, i32, %struct._priv_exr_part_t, ptr, ptr, %struct.exr_attribute_list, %union.pthread_mutex_t, i8, i8, [2 x i8], i32 }
%struct.exr_attr_string_t = type { i32, i32, ptr }
%struct._priv_exr_part_t = type { i32, i32, %struct.exr_attribute_list, ptr, ptr, ptr, ptr, ptr, ptr, ptr, ptr, ptr, ptr, ptr, ptr, ptr, ptr, %struct.exr_attr_box2i_t, %struct.exr_attr_box2i_t, i32, i32, i32, float, i32, i32, ptr, ptr, ptr, ptr, i64, i16, i16, i32, i64, i64 }
%struct.exr_attr_box2i_t = type { %struct.exr_attr_v2i_t, %struct.exr_attr_v2i_t }
%struct.exr_attr_v2i_t = type { i32, i32 }
%struct.exr_attribute_list = type { i32, i32, ptr, ptr }
%union.pthread_mutex_t = type { %struct.__pthread_mutex_s }
%struct.__pthread_mutex_s = type { i32, i32, i32, i32, i32, i16, i16, %struct.__pthread_internal_list }
%struct.__pthread_internal_list = type { ptr, ptr }
%struct.exr_attribute_t = type { ptr, ptr, i8, i8, [2 x i8], i32, %union.anon }
%union.anon = type { double }
%struct.exr_attr_opaquedata_t = type { i32, i32, i32, [4 x i8], ptr, ptr, ptr, ptr, ptr }

@.str.5 = private unnamed_addr constant [38 x i8] c"Invalid type to register_attr_handler\00", align 1
@.str.6 = private unnamed_addr constant [59 x i8] c"Provided type name '%s' too long for file (len %d, max %d)\00", align 1
@.str.7 = private unnamed_addr constant [59 x i8] c"Provided type name '%s' is a reserved / internal type name\00", align 1
@.str.8 = private unnamed_addr constant [49 x i8] c"Attribute handler for '%s' previously registered\00", align 1
@.str.9 = private unnamed_addr constant [48 x i8] c"Unable to register custom handler for type '%s'\00", align 1

; Function Attrs: inlinehint nounwind uwtable
define internal void @internal_exr_unlock(ptr noundef %0) #2 {
  %2 = alloca ptr, align 8
  %3 = alloca ptr, align 8
  store ptr %0, ptr %2, align 8, !tbaa !12
  call void @llvm.lifetime.start.p0(i64 8, ptr %3) #9
  %4 = load ptr, ptr %2, align 8, !tbaa !12
  %5 = ptrtoint ptr %4 to i64
  %6 = inttoptr i64 %5 to ptr
  store ptr %6, ptr %3, align 8, !tbaa !12
  %7 = load ptr, ptr %3, align 8, !tbaa !12
  %8 = getelementptr inbounds nuw %struct._priv_exr_context_t, ptr %7, i32 0, i32 39
  %9 = call i32 @pthread_mutex_unlock(ptr noundef %8) #9
  call void @llvm.lifetime.end.p0(i64 8, ptr %3) #9
  ret void
}

; Function Attrs: inlinehint nounwind uwtable
define internal void @internal_exr_lock(ptr noundef %0) #2 {
  %2 = alloca ptr, align 8
  %3 = alloca ptr, align 8
  store ptr %0, ptr %2, align 8, !tbaa !12
  call void @llvm.lifetime.start.p0(i64 8, ptr %3) #9
  %4 = load ptr, ptr %2, align 8, !tbaa !12
  %5 = ptrtoint ptr %4 to i64
  %6 = inttoptr i64 %5 to ptr
  store ptr %6, ptr %3, align 8, !tbaa !12
  %7 = load ptr, ptr %3, align 8, !tbaa !12
  %8 = getelementptr inbounds nuw %struct._priv_exr_context_t, ptr %7, i32 0, i32 39
  %9 = call i32 @pthread_mutex_lock(ptr noundef %8) #9
  call void @llvm.lifetime.end.p0(i64 8, ptr %3) #9
  ret void
}

; Function Attrs: nounwind uwtable
define i32 @exr_register_attr_type_handler(ptr noundef %0, ptr noundef %1, ptr noundef %2, ptr noundef %3, ptr noundef %4) #0 {
  %6 = alloca i32, align 4
  %7 = alloca ptr, align 8
  %8 = alloca ptr, align 8
  %9 = alloca ptr, align 8
  %10 = alloca ptr, align 8
  %11 = alloca ptr, align 8
  %12 = alloca ptr, align 8
  %13 = alloca i32, align 4
  %14 = alloca i32, align 4
  %15 = alloca i32, align 4
  %16 = alloca i64, align 8
  %17 = alloca ptr, align 8
  %18 = alloca i32, align 4
  %19 = alloca i32, align 4
  %20 = alloca i32, align 4
  %21 = alloca i32, align 4
  store ptr %0, ptr %7, align 8, !tbaa !12
  store ptr %1, ptr %8, align 8, !tbaa !3
  store ptr %2, ptr %9, align 8, !tbaa !45
  store ptr %3, ptr %10, align 8, !tbaa !45
  store ptr %4, ptr %11, align 8, !tbaa !45
  call void @llvm.lifetime.start.p0(i64 8, ptr %12) #9
  call void @llvm.lifetime.start.p0(i64 4, ptr %13) #9
  call void @llvm.lifetime.start.p0(i64 4, ptr %14) #9
  call void @llvm.lifetime.start.p0(i64 4, ptr %15) #9
  store i32 31, ptr %15, align 4, !tbaa !10
  call void @llvm.lifetime.start.p0(i64 8, ptr %16) #9
  call void @llvm.lifetime.start.p0(i64 8, ptr %17) #9
  %22 = load ptr, ptr %7, align 8, !tbaa !12
  %23 = icmp ne ptr %22, null
  br i1 %23, label %25, label %24

24:                                               ; preds = %5
  store i32 2, ptr %6, align 4
  store i32 1, ptr %18, align 4
  br label %204

25:                                               ; preds = %5
  %26 = load ptr, ptr %7, align 8, !tbaa !12
  call void @internal_exr_lock(ptr noundef %26)
  %27 = load ptr, ptr %7, align 8, !tbaa !12
  %28 = getelementptr inbounds nuw %struct._priv_exr_context_t, ptr %27, i32 0, i32 2
  %29 = load i8, ptr %28, align 2, !tbaa !81
  %30 = zext i8 %29 to i32
  store i32 %30, ptr %15, align 4, !tbaa !10
  %31 = load ptr, ptr %8, align 8, !tbaa !3
  %32 = icmp ne ptr %31, null
  br i1 %32, label %33, label %39

33:                                               ; preds = %25
  %34 = load ptr, ptr %8, align 8, !tbaa !3
  %35 = getelementptr inbounds i8, ptr %34, i64 0
  %36 = load i8, ptr %35, align 1, !tbaa !74
  %37 = sext i8 %36 to i32
  %38 = icmp eq i32 %37, 0
  br i1 %38, label %39, label %46

39:                                               ; preds = %33, %25
  %40 = load ptr, ptr %7, align 8, !tbaa !12
  call void @internal_exr_unlock(ptr noundef %40)
  %41 = load ptr, ptr %7, align 8, !tbaa !12
  %42 = getelementptr inbounds nuw %struct._priv_exr_context_t, ptr %41, i32 0, i32 13
  %43 = load ptr, ptr %42, align 8, !tbaa !49
  %44 = load ptr, ptr %7, align 8, !tbaa !12
  %45 = call i32 %43(ptr noundef %44, i32 noundef 3, ptr noundef @.str.5)
  store i32 %45, ptr %6, align 4
  store i32 1, ptr %18, align 4
  br label %204

46:                                               ; preds = %33
  %47 = load ptr, ptr %8, align 8, !tbaa !3
  %48 = call i64 @strlen(ptr noundef %47) #11
  store i64 %48, ptr %16, align 8, !tbaa !46
  %49 = load i64, ptr %16, align 8, !tbaa !46
  %50 = load i32, ptr %15, align 4, !tbaa !10
  %51 = sext i32 %50 to i64
  %52 = icmp ugt i64 %49, %51
  br i1 %52, label %53, label %64

53:                                               ; preds = %46
  %54 = load ptr, ptr %7, align 8, !tbaa !12
  call void @internal_exr_unlock(ptr noundef %54)
  %55 = load ptr, ptr %7, align 8, !tbaa !12
  %56 = getelementptr inbounds nuw %struct._priv_exr_context_t, ptr %55, i32 0, i32 14
  %57 = load ptr, ptr %56, align 8, !tbaa !52
  %58 = load ptr, ptr %7, align 8, !tbaa !12
  %59 = load ptr, ptr %8, align 8, !tbaa !3
  %60 = load i64, ptr %16, align 8, !tbaa !46
  %61 = trunc i64 %60 to i32
  %62 = load i32, ptr %15, align 4, !tbaa !10
  %63 = call i32 (ptr, i32, ptr, ...) %57(ptr noundef %58, i32 noundef 12, ptr noundef @.str.6, ptr noundef %59, i32 noundef %61, i32 noundef %62)
  store i32 %63, ptr %6, align 4
  store i32 1, ptr %18, align 4
  br label %204

64:                                               ; preds = %46
  %65 = load i64, ptr %16, align 8, !tbaa !46
  %66 = trunc i64 %65 to i32
  store i32 %66, ptr %14, align 4, !tbaa !10
  %67 = load ptr, ptr %8, align 8, !tbaa !3
  %68 = call i32 @internal_exr_is_standard_type(ptr noundef %67)
  %69 = icmp ne i32 %68, 0
  br i1 %69, label %70, label %78

70:                                               ; preds = %64
  %71 = load ptr, ptr %7, align 8, !tbaa !12
  call void @internal_exr_unlock(ptr noundef %71)
  %72 = load ptr, ptr %7, align 8, !tbaa !12
  %73 = getelementptr inbounds nuw %struct._priv_exr_context_t, ptr %72, i32 0, i32 14
  %74 = load ptr, ptr %73, align 8, !tbaa !52
  %75 = load ptr, ptr %7, align 8, !tbaa !12
  %76 = load ptr, ptr %8, align 8, !tbaa !3
  %77 = call i32 (ptr, i32, ptr, ...) %74(ptr noundef %75, i32 noundef 3, ptr noundef @.str.7, ptr noundef %76)
  store i32 %77, ptr %6, align 4
  store i32 1, ptr %18, align 4
  br label %204

78:                                               ; preds = %64
  %79 = load ptr, ptr %7, align 8, !tbaa !12
  %80 = load ptr, ptr %7, align 8, !tbaa !12
  %81 = getelementptr inbounds nuw %struct._priv_exr_context_t, ptr %80, i32 0, i32 38
  %82 = load ptr, ptr %8, align 8, !tbaa !3
  %83 = call i32 @exr_attr_list_find_by_name(ptr noundef %79, ptr noundef %81, ptr noundef %82, ptr noundef %12)
  store i32 %83, ptr %13, align 4, !tbaa !10
  %84 = load i32, ptr %13, align 4, !tbaa !10
  %85 = icmp eq i32 %84, 0
  br i1 %85, label %86, label %94

86:                                               ; preds = %78
  %87 = load ptr, ptr %7, align 8, !tbaa !12
  call void @internal_exr_unlock(ptr noundef %87)
  %88 = load ptr, ptr %7, align 8, !tbaa !12
  %89 = getelementptr inbounds nuw %struct._priv_exr_context_t, ptr %88, i32 0, i32 14
  %90 = load ptr, ptr %89, align 8, !tbaa !52
  %91 = load ptr, ptr %7, align 8, !tbaa !12
  %92 = load ptr, ptr %8, align 8, !tbaa !3
  %93 = call i32 (ptr, i32, ptr, ...) %90(ptr noundef %91, i32 noundef 3, ptr noundef @.str.8, ptr noundef %92)
  store i32 %93, ptr %6, align 4
  store i32 1, ptr %18, align 4
  br label %204

94:                                               ; preds = %78
  store ptr null, ptr %12, align 8, !tbaa !45
  %95 = load ptr, ptr %7, align 8, !tbaa !12
  %96 = load ptr, ptr %7, align 8, !tbaa !12
  %97 = getelementptr inbounds nuw %struct._priv_exr_context_t, ptr %96, i32 0, i32 38
  %98 = load ptr, ptr %8, align 8, !tbaa !3
  %99 = load ptr, ptr %8, align 8, !tbaa !3
  %100 = call i32 @exr_attr_list_add_by_type(ptr noundef %95, ptr noundef %97, ptr noundef %98, ptr noundef %99, i32 noundef 0, ptr noundef null, ptr noundef %12)
  store i32 %100, ptr %13, align 4, !tbaa !10
  %101 = load i32, ptr %13, align 4, !tbaa !10
  %102 = icmp ne i32 %101, 0
  br i1 %102, label %103, label %112

103:                                              ; preds = %94
  %104 = load ptr, ptr %7, align 8, !tbaa !12
  call void @internal_exr_unlock(ptr noundef %104)
  %105 = load ptr, ptr %7, align 8, !tbaa !12
  %106 = getelementptr inbounds nuw %struct._priv_exr_context_t, ptr %105, i32 0, i32 14
  %107 = load ptr, ptr %106, align 8, !tbaa !52
  %108 = load ptr, ptr %7, align 8, !tbaa !12
  %109 = load i32, ptr %13, align 4, !tbaa !10
  %110 = load ptr, ptr %8, align 8, !tbaa !3
  %111 = call i32 (ptr, i32, ptr, ...) %107(ptr noundef %108, i32 noundef %109, ptr noundef @.str.9, ptr noundef %110)
  store i32 %111, ptr %6, align 4
  store i32 1, ptr %18, align 4
  br label %204

112:                                              ; preds = %94
  %113 = load ptr, ptr %9, align 8, !tbaa !45
  %114 = load ptr, ptr %12, align 8, !tbaa !45
  %115 = getelementptr inbounds nuw %struct.exr_attribute_t, ptr %114, i32 0, i32 6
  %116 = load ptr, ptr %115, align 8, !tbaa !74
  %117 = getelementptr inbounds nuw %struct.exr_attr_opaquedata_t, ptr %116, i32 0, i32 6
  store ptr %113, ptr %117, align 8, !tbaa !82
  %118 = load ptr, ptr %10, align 8, !tbaa !45
  %119 = load ptr, ptr %12, align 8, !tbaa !45
  %120 = getelementptr inbounds nuw %struct.exr_attribute_t, ptr %119, i32 0, i32 6
  %121 = load ptr, ptr %120, align 8, !tbaa !74
  %122 = getelementptr inbounds nuw %struct.exr_attr_opaquedata_t, ptr %121, i32 0, i32 7
  store ptr %118, ptr %122, align 8, !tbaa !84
  %123 = load ptr, ptr %11, align 8, !tbaa !45
  %124 = load ptr, ptr %12, align 8, !tbaa !45
  %125 = getelementptr inbounds nuw %struct.exr_attribute_t, ptr %124, i32 0, i32 6
  %126 = load ptr, ptr %125, align 8, !tbaa !74
  %127 = getelementptr inbounds nuw %struct.exr_attr_opaquedata_t, ptr %126, i32 0, i32 8
  store ptr %123, ptr %127, align 8, !tbaa !85
  call void @llvm.lifetime.start.p0(i64 4, ptr %19) #9
  store i32 0, ptr %19, align 4, !tbaa !10
  br label %128

128:                                              ; preds = %198, %112
  %129 = load i32, ptr %19, align 4, !tbaa !10
  %130 = load ptr, ptr %7, align 8, !tbaa !12
  %131 = getelementptr inbounds nuw %struct._priv_exr_context_t, ptr %130, i32 0, i32 34
  %132 = load i32, ptr %131, align 4, !tbaa !86
  %133 = icmp slt i32 %129, %132
  br i1 %133, label %135, label %134

134:                                              ; preds = %128
  store i32 2, ptr %18, align 4
  call void @llvm.lifetime.end.p0(i64 4, ptr %19) #9
  br label %201

135:                                              ; preds = %128
  %136 = load ptr, ptr %7, align 8, !tbaa !12
  %137 = getelementptr inbounds nuw %struct._priv_exr_context_t, ptr %136, i32 0, i32 37
  %138 = load ptr, ptr %137, align 8, !tbaa !87
  %139 = load i32, ptr %19, align 4, !tbaa !10
  %140 = sext i32 %139 to i64
  %141 = getelementptr inbounds ptr, ptr %138, i64 %140
  %142 = load ptr, ptr %141, align 8, !tbaa !88
  %143 = getelementptr inbounds nuw %struct._priv_exr_part_t, ptr %142, i32 0, i32 2
  store ptr %143, ptr %17, align 8, !tbaa !89
  %144 = load ptr, ptr %17, align 8, !tbaa !89
  %145 = icmp ne ptr %144, null
  br i1 %145, label %146, label %197

146:                                              ; preds = %135
  call void @llvm.lifetime.start.p0(i64 4, ptr %20) #9
  %147 = load ptr, ptr %17, align 8, !tbaa !89
  %148 = getelementptr inbounds nuw %struct.exr_attribute_list, ptr %147, i32 0, i32 0
  %149 = load i32, ptr %148, align 8, !tbaa !91
  store i32 %149, ptr %20, align 4, !tbaa !10
  call void @llvm.lifetime.start.p0(i64 4, ptr %21) #9
  store i32 0, ptr %21, align 4, !tbaa !10
  br label %150

150:                                              ; preds = %193, %146
  %151 = load i32, ptr %21, align 4, !tbaa !10
  %152 = load i32, ptr %20, align 4, !tbaa !10
  %153 = icmp slt i32 %151, %152
  br i1 %153, label %155, label %154

154:                                              ; preds = %150
  store i32 5, ptr %18, align 4
  call void @llvm.lifetime.end.p0(i64 4, ptr %21) #9
  br label %196

155:                                              ; preds = %150
  %156 = load ptr, ptr %17, align 8, !tbaa !89
  %157 = getelementptr inbounds nuw %struct.exr_attribute_list, ptr %156, i32 0, i32 2
  %158 = load ptr, ptr %157, align 8, !tbaa !92
  %159 = load i32, ptr %21, align 4, !tbaa !10
  %160 = sext i32 %159 to i64
  %161 = getelementptr inbounds ptr, ptr %158, i64 %160
  %162 = load ptr, ptr %161, align 8, !tbaa !45
  store ptr %162, ptr %12, align 8, !tbaa !45
  %163 = load ptr, ptr %12, align 8, !tbaa !45
  %164 = getelementptr inbounds nuw %struct.exr_attribute_t, ptr %163, i32 0, i32 3
  %165 = load i8, ptr %164, align 1, !tbaa !93
  %166 = zext i8 %165 to i32
  %167 = load i32, ptr %14, align 4, !tbaa !10
  %168 = icmp eq i32 %166, %167
  br i1 %168, label %169, label %192

169:                                              ; preds = %155
  %170 = load ptr, ptr %12, align 8, !tbaa !45
  %171 = getelementptr inbounds nuw %struct.exr_attribute_t, ptr %170, i32 0, i32 1
  %172 = load ptr, ptr %171, align 8, !tbaa !95
  %173 = load ptr, ptr %8, align 8, !tbaa !3
  %174 = call i32 @strcmp(ptr noundef %172, ptr noundef %173) #11
  %175 = icmp eq i32 0, %174
  br i1 %175, label %176, label %192

176:                                              ; preds = %169
  %177 = load ptr, ptr %9, align 8, !tbaa !45
  %178 = load ptr, ptr %12, align 8, !tbaa !45
  %179 = getelementptr inbounds nuw %struct.exr_attribute_t, ptr %178, i32 0, i32 6
  %180 = load ptr, ptr %179, align 8, !tbaa !74
  %181 = getelementptr inbounds nuw %struct.exr_attr_opaquedata_t, ptr %180, i32 0, i32 6
  store ptr %177, ptr %181, align 8, !tbaa !82
  %182 = load ptr, ptr %10, align 8, !tbaa !45
  %183 = load ptr, ptr %12, align 8, !tbaa !45
  %184 = getelementptr inbounds nuw %struct.exr_attribute_t, ptr %183, i32 0, i32 6
  %185 = load ptr, ptr %184, align 8, !tbaa !74
  %186 = getelementptr inbounds nuw %struct.exr_attr_opaquedata_t, ptr %185, i32 0, i32 7
  store ptr %182, ptr %186, align 8, !tbaa !84
  %187 = load ptr, ptr %11, align 8, !tbaa !45
  %188 = load ptr, ptr %12, align 8, !tbaa !45
  %189 = getelementptr inbounds nuw %struct.exr_attribute_t, ptr %188, i32 0, i32 6
  %190 = load ptr, ptr %189, align 8, !tbaa !74
  %191 = getelementptr inbounds nuw %struct.exr_attr_opaquedata_t, ptr %190, i32 0, i32 8
  store ptr %187, ptr %191, align 8, !tbaa !85
  br label %192

192:                                              ; preds = %176, %169, %155
  br label %193

193:                                              ; preds = %192
  %194 = load i32, ptr %21, align 4, !tbaa !10
  %195 = add nsw i32 %194, 1
  store i32 %195, ptr %21, align 4, !tbaa !10
  br label %150, !llvm.loop !96

196:                                              ; preds = %154
  call void @llvm.lifetime.end.p0(i64 4, ptr %20) #9
  br label %197

197:                                              ; preds = %196, %135
  br label %198

198:                                              ; preds = %197
  %199 = load i32, ptr %19, align 4, !tbaa !10
  %200 = add nsw i32 %199, 1
  store i32 %200, ptr %19, align 4, !tbaa !10
  br label %128, !llvm.loop !98

201:                                              ; preds = %134
  %202 = load ptr, ptr %7, align 8, !tbaa !12
  call void @internal_exr_unlock(ptr noundef %202)
  %203 = load i32, ptr %13, align 4, !tbaa !10
  store i32 %203, ptr %6, align 4
  store i32 1, ptr %18, align 4
  br label %204

204:                                              ; preds = %201, %103, %86, %70, %53, %39, %24
  call void @llvm.lifetime.end.p0(i64 8, ptr %17) #9
  call void @llvm.lifetime.end.p0(i64 8, ptr %16) #9
  call void @llvm.lifetime.end.p0(i64 4, ptr %15) #9
  call void @llvm.lifetime.end.p0(i64 4, ptr %14) #9
  call void @llvm.lifetime.end.p0(i64 4, ptr %13) #9
  call void @llvm.lifetime.end.p0(i64 8, ptr %12) #9
  %205 = load i32, ptr %6, align 4
  ret i32 %205
}