; Function Attrs: nounwind uwtable
define i32 @exr_register_attr_type_handler(ptr noundef %0, ptr noundef %1, ptr noundef %2, ptr noundef %3, ptr noundef %4) local_unnamed_addr #0 {
  %6 = alloca ptr, align 8
  call void @llvm.lifetime.start.p0(i64 8, ptr nonnull %6) #13
  %.not = icmp eq ptr %0, null
  br i1 %.not, label %97, label %7

7:                                                ; preds = %5
  %8 = getelementptr inbounds nuw i8, ptr %0, i64 504
  %9 = tail call i32 @pthread_mutex_lock(ptr noundef nonnull %8) #13
  %10 = getelementptr inbounds nuw i8, ptr %0, i64 2
  %11 = load i8, ptr %10, align 2, !tbaa !78
  %12 = zext i8 %11 to i32
  %.not70 = icmp eq ptr %1, null
  br i1 %.not70, label %16, label %13

13:                                               ; preds = %7
  %14 = load i8, ptr %1, align 1, !tbaa !69
  %15 = icmp eq i8 %14, 0
  br i1 %15, label %16, label %21

16:                                               ; preds = %13, %7
  %17 = tail call i32 @pthread_mutex_unlock(ptr noundef nonnull %8) #13
  %18 = getelementptr inbounds nuw i8, ptr %0, i64 64
  %19 = load ptr, ptr %18, align 8, !tbaa !54
  %20 = tail call i32 %19(ptr noundef nonnull %0, i32 noundef 3, ptr noundef nonnull @.str.5) #13
  br label %97

21:                                               ; preds = %13
  %22 = tail call i64 @strlen(ptr noundef nonnull dereferenceable(1) %1) #15
  %23 = zext i8 %11 to i64
  %24 = icmp ugt i64 %22, %23
  br i1 %24, label %25, label %31

25:                                               ; preds = %21
  %26 = tail call i32 @pthread_mutex_unlock(ptr noundef nonnull %8) #13
  %27 = getelementptr inbounds nuw i8, ptr %0, i64 72
  %28 = load ptr, ptr %27, align 8, !tbaa !50
  %29 = trunc i64 %22 to i32
  %30 = tail call i32 (ptr, i32, ptr, ...) %28(ptr noundef nonnull %0, i32 noundef 12, ptr noundef nonnull @.str.6, ptr noundef nonnull %1, i32 noundef %29, i32 noundef %12) #13
  br label %97

31:                                               ; preds = %21
  %32 = tail call i32 @internal_exr_is_standard_type(ptr noundef nonnull %1) #13
  %.not71 = icmp eq i32 %32, 0
  br i1 %.not71, label %38, label %33

33:                                               ; preds = %31
  %34 = tail call i32 @pthread_mutex_unlock(ptr noundef nonnull %8) #13
  %35 = getelementptr inbounds nuw i8, ptr %0, i64 72
  %36 = load ptr, ptr %35, align 8, !tbaa !50
  %37 = tail call i32 (ptr, i32, ptr, ...) %36(ptr noundef nonnull %0, i32 noundef 3, ptr noundef nonnull @.str.7, ptr noundef nonnull %1) #13
  br label %97

38:                                               ; preds = %31
  %39 = getelementptr inbounds nuw i8, ptr %0, i64 480
  %40 = call i32 @exr_attr_list_find_by_name(ptr noundef nonnull %0, ptr noundef nonnull %39, ptr noundef nonnull %1, ptr noundef nonnull %6) #13
  %41 = icmp eq i32 %40, 0
  br i1 %41, label %42, label %47

42:                                               ; preds = %38
  %43 = call i32 @pthread_mutex_unlock(ptr noundef nonnull %8) #13
  %44 = getelementptr inbounds nuw i8, ptr %0, i64 72
  %45 = load ptr, ptr %44, align 8, !tbaa !50
  %46 = call i32 (ptr, i32, ptr, ...) %45(ptr noundef nonnull %0, i32 noundef 3, ptr noundef nonnull @.str.8, ptr noundef nonnull %1) #13
  br label %97

47:                                               ; preds = %38
  store ptr null, ptr %6, align 8, !tbaa !77
  %48 = call i32 @exr_attr_list_add_by_type(ptr noundef nonnull %0, ptr noundef nonnull %39, ptr noundef nonnull %1, ptr noundef nonnull %1, i32 noundef 0, ptr noundef null, ptr noundef nonnull %6) #13
  %.not72 = icmp eq i32 %48, 0
  br i1 %.not72, label %54, label %49

49:                                               ; preds = %47
  %50 = call i32 @pthread_mutex_unlock(ptr noundef nonnull %8) #13
  %51 = getelementptr inbounds nuw i8, ptr %0, i64 72
  %52 = load ptr, ptr %51, align 8, !tbaa !50
  %53 = call i32 (ptr, i32, ptr, ...) %52(ptr noundef nonnull %0, i32 noundef %48, ptr noundef nonnull @.str.9, ptr noundef nonnull %1) #13
  br label %97

54:                                               ; preds = %47
  %55 = load ptr, ptr %6, align 8, !tbaa !77
  %56 = getelementptr inbounds nuw i8, ptr %55, i64 24
  %57 = load ptr, ptr %56, align 8, !tbaa !69
  %58 = getelementptr inbounds nuw i8, ptr %57, i64 32
  store ptr %2, ptr %58, align 8, !tbaa !79
  %59 = load ptr, ptr %56, align 8, !tbaa !69
  %60 = getelementptr inbounds nuw i8, ptr %59, i64 40
  store ptr %3, ptr %60, align 8, !tbaa !81
  %61 = load ptr, ptr %56, align 8, !tbaa !69
  %62 = getelementptr inbounds nuw i8, ptr %61, i64 48
  store ptr %4, ptr %62, align 8, !tbaa !82
  %63 = getelementptr inbounds nuw i8, ptr %0, i64 196
  %64 = load i32, ptr %63, align 4, !tbaa !83
  %65 = icmp sgt i32 %64, 0
  br i1 %65, label %.lr.ph76, label %._crit_edge77

.lr.ph76:                                         ; preds = %54
  %66 = getelementptr inbounds nuw i8, ptr %0, i64 472
  %67 = load ptr, ptr %66, align 8, !tbaa !84
  %wide.trip.count82 = zext nneg i32 %64 to i64
  br label %69

._crit_edge77:                                    ; preds = %._crit_edge, %54
  %68 = call i32 @pthread_mutex_unlock(ptr noundef nonnull %8) #13
  br label %97

69:                                               ; preds = %.lr.ph76, %._crit_edge
  %indvars.iv79 = phi i64 [ 0, %.lr.ph76 ], [ %indvars.iv.next80, %._crit_edge ]
  %70 = getelementptr inbounds nuw ptr, ptr %67, i64 %indvars.iv79
  %71 = load ptr, ptr %70, align 8, !tbaa !85
  %72 = getelementptr inbounds nuw i8, ptr %71, i64 8
  %73 = load i32, ptr %72, align 8, !tbaa !86
  %74 = icmp sgt i32 %73, 0
  br i1 %74, label %.lr.ph, label %._crit_edge

.lr.ph:                                           ; preds = %69
  %75 = getelementptr inbounds nuw i8, ptr %71, i64 16
  %wide.trip.count = zext nneg i32 %73 to i64
  %.pre = load ptr, ptr %75, align 8, !tbaa !87
  br label %76

76:                                               ; preds = %.lr.ph, %96
  %indvars.iv = phi i64 [ 0, %.lr.ph ], [ %indvars.iv.next, %96 ]
  %77 = getelementptr inbounds nuw ptr, ptr %.pre, i64 %indvars.iv
  %78 = load ptr, ptr %77, align 8, !tbaa !77
  store ptr %78, ptr %6, align 8, !tbaa !77
  %79 = getelementptr inbounds nuw i8, ptr %78, i64 17
  %80 = load i8, ptr %79, align 1, !tbaa !88
  %81 = zext i8 %80 to i64
  %82 = icmp eq i64 %22, %81
  br i1 %82, label %83, label %96

83:                                               ; preds = %76
  %84 = getelementptr inbounds nuw i8, ptr %78, i64 8
  %85 = load ptr, ptr %84, align 8, !tbaa !90
  %86 = call i32 @strcmp(ptr noundef nonnull dereferenceable(1) %85, ptr noundef nonnull dereferenceable(1) %1) #15
  %87 = icmp eq i32 %86, 0
  br i1 %87, label %88, label %96

88:                                               ; preds = %83
  %89 = getelementptr inbounds nuw i8, ptr %78, i64 24
  %90 = load ptr, ptr %89, align 8, !tbaa !69
  %91 = getelementptr inbounds nuw i8, ptr %90, i64 32
  store ptr %2, ptr %91, align 8, !tbaa !79
  %92 = load ptr, ptr %89, align 8, !tbaa !69
  %93 = getelementptr inbounds nuw i8, ptr %92, i64 40
  store ptr %3, ptr %93, align 8, !tbaa !81
  %94 = load ptr, ptr %89, align 8, !tbaa !69
  %95 = getelementptr inbounds nuw i8, ptr %94, i64 48
  store ptr %4, ptr %95, align 8, !tbaa !82
  br label %96

96:                                               ; preds = %76, %83, %88
  %indvars.iv.next = add nuw nsw i64 %indvars.iv, 1
  %exitcond.not = icmp eq i64 %indvars.iv.next, %wide.trip.count
  br i1 %exitcond.not, label %._crit_edge, label %76, !llvm.loop !91

._crit_edge:                                      ; preds = %96, %69
  %indvars.iv.next80 = add nuw nsw i64 %indvars.iv79, 1
  %exitcond83.not = icmp eq i64 %indvars.iv.next80, %wide.trip.count82
  br i1 %exitcond83.not, label %._crit_edge77, label %69, !llvm.loop !93

97:                                               ; preds = %5, %._crit_edge77, %49, %42, %33, %25, %16
  %.063 = phi i32 [ %20, %16 ], [ %30, %25 ], [ %37, %33 ], [ %46, %42 ], [ %53, %49 ], [ 0, %._crit_edge77 ], [ 2, %5 ]
  call void @llvm.lifetime.end.p0(i64 8, ptr nonnull %6) #13
  ret i32 %.063
}